target datalayout = "e-m:e-p270:32:32-p271:32:32-p272:64:64-i64:64-i128:128-f80:128-n8:16:32:64-S128"
target triple = "x86_64-pc-linux-gnu"

%struct.semholder_s = type { ptr, ptr, ptr, ptr, i16 }
%struct.dq_queue_s = type { ptr, ptr }
%struct.sem_s = type { i16, i8, %struct.dq_queue_s, ptr }

; Function Attrs: nounwind uwtable
define internal i32 @nxsem_foreachholder(ptr noundef %0, ptr noundef %1, ptr noundef %2) #0 {
  %4 = alloca ptr, align 8
  %5 = alloca ptr, align 8
  %6 = alloca ptr, align 8
  %7 = alloca ptr, align 8
  %8 = alloca i32, align 4
  %9 = alloca ptr, align 8
  store ptr %0, ptr %4, align 8
  store ptr %1, ptr %5, align 8
  store ptr %2, ptr %6, align 8
  store i32 0, ptr %8, align 4
  %10 = load ptr, ptr %4, align 8
  %11 = getelementptr inbounds %struct.sem_s, ptr %10, i32 0, i32 3
  %12 = load ptr, ptr %11, align 8
  store ptr %12, ptr %7, align 8
  br label %13

13:                                               ; preds = %30, %3
  %14 = load ptr, ptr %7, align 8
  %15 = icmp ne ptr %14, null
  br i1 %15, label %16, label %19

16:                                               ; preds = %13
  %17 = load i32, ptr %8, align 4
  %18 = icmp eq i32 %17, 0
  br label %19

19:                                               ; preds = %16, %13
  %20 = phi i1 [ false, %13 ], [ %18, %16 ]
  br i1 %20, label %21, label %32

21:                                               ; preds = %19
  %22 = load ptr, ptr %7, align 8
  %23 = getelementptr inbounds %struct.semholder_s, ptr %22, i32 0, i32 0
  %24 = load ptr, ptr %23, align 8
  store ptr %24, ptr %9, align 8
  %25 = load ptr, ptr %5, align 8
  %26 = load ptr, ptr %7, align 8
  %27 = load ptr, ptr %4, align 8
  %28 = load ptr, ptr %6, align 8
  %29 = call i32 %25(ptr noundef %26, ptr noundef %27, ptr noundef %28)
  store i32 %29, ptr %8, align 4
  br label %30

30:                                               ; preds = %21
  %31 = load ptr, ptr %9, align 8
  store ptr %31, ptr %7, align 8
  br label %13, !llvm.loop !8

32:                                               ; preds = %19
  %33 = load i32, ptr %8, align 4
  ret i32 %33
}

; Function Attrs: nounwind uwtable
define void @nxsem_restore_baseprio(ptr noundef %0, ptr noundef %1) #0 {
  %3 = alloca ptr, align 8
  %4 = alloca ptr, align 8
  store ptr %0, ptr %3, align 8
  store ptr %1, ptr %4, align 8
  %5 = load ptr, ptr %3, align 8
  %6 = icmp ne ptr %5, null
  br i1 %6, label %7, label %14

7:                                                ; preds = %2
  %8 = load ptr, ptr %4, align 8
  %9 = load ptr, ptr %3, align 8
  %10 = call i32 @nxsem_foreachholder(ptr noundef %8, ptr noundef @nxsem_restoreholderprio_others, ptr noundef %9)
  %11 = load ptr, ptr %4, align 8
  %12 = load ptr, ptr %3, align 8
  %13 = call i32 @nxsem_foreachholder(ptr noundef %11, ptr noundef @nxsem_restoreholderprio_self, ptr noundef %12)
  br label %17

14:                                               ; preds = %2
  %15 = load ptr, ptr %4, align 8
  %16 = call i32 @nxsem_foreachholder(ptr noundef %15, ptr noundef @nxsem_freecount0holder, ptr noundef null)
  br label %17

17:                                               ; preds = %14, %7
  ret void
}