; Function Attrs: nounwind uwtable
define void @nxsem_restore_baseprio(ptr noundef readnone %0, ptr noundef captures(none) %1) local_unnamed_addr #2 {
  %.not = icmp eq ptr %0, null
  %3 = getelementptr inbounds nuw i8, ptr %1, i64 24
  %4 = load ptr, ptr %3, align 8
  %.not.i11 = icmp eq ptr %4, null
  br i1 %.not, label %103, label %5

5:                                                ; preds = %2
  br i1 %.not.i11, label %nxsem_foreachholder.exit10, label %.lr.ph.i

.lr.ph.i:                                         ; preds = %5, %nxsem_restoreholderprio_others.exit
  %.010.i = phi ptr [ %6, %nxsem_restoreholderprio_others.exit ], [ %4, %5 ]
  %6 = load ptr, ptr %.010.i, align 8
  %7 = load ptr, ptr @g_readytorun, align 8
  %8 = getelementptr inbounds nuw i8, ptr %.010.i, i64 24
  %9 = load ptr, ptr %8, align 8
  %.not.i16 = icmp eq ptr %9, %7
  br i1 %.not.i16, label %nxsem_restoreholderprio_others.exit, label %10

10:                                               ; preds = %.lr.ph.i
  %11 = getelementptr inbounds nuw i8, ptr %.010.i, i64 32
  %12 = load i16, ptr %11, align 8
  %13 = icmp slt i16 %12, 1
  br i1 %13, label %14, label %33

14:                                               ; preds = %10
  %15 = getelementptr inbounds nuw i8, ptr %9, i64 56
  %16 = load ptr, ptr %15, align 8
  %.not28.i.i.i = icmp eq ptr %16, null
  br i1 %.not28.i.i.i, label %.loopexit25.i.i.i, label %.lr.ph.i.preheader.i.i

.lr.ph.i.preheader.i.i:                           ; preds = %14
  %17 = icmp eq ptr %16, %.010.i
  br i1 %17, label %.lr.ph.i._crit_edge.i.i, label %.lr.ph.i.i

.lr.ph.i.i:                                       ; preds = %.lr.ph.i.preheader.i.i, %.lr.ph.i.i.i
  %18 = phi ptr [ %20, %.lr.ph.i.i.i ], [ %16, %.lr.ph.i.preheader.i.i ]
  %19 = getelementptr inbounds nuw i8, ptr %18, i64 8
  %20 = load ptr, ptr %19, align 8
  %.not.i.i.i = icmp eq ptr %20, null
  br i1 %.not.i.i.i, label %.loopexit25.i.i.i, label %.lr.ph.i.i.i, !llvm.loop !8

.lr.ph.i.i.i:                                     ; preds = %.lr.ph.i.i
  %21 = icmp eq ptr %20, %.010.i
  br i1 %21, label %.lr.ph.i._crit_edge.i.i.loopexit, label %.lr.ph.i.i, !llvm.loop !8

.lr.ph.i._crit_edge.i.i.loopexit:                 ; preds = %.lr.ph.i.i.i
  %22 = getelementptr inbounds nuw i8, ptr %18, i64 8
  br label %.lr.ph.i._crit_edge.i.i

.lr.ph.i._crit_edge.i.i:                          ; preds = %.lr.ph.i._crit_edge.i.i.loopexit, %.lr.ph.i.preheader.i.i
  %.029.i.lcssa.i.i = phi ptr [ %15, %.lr.ph.i.preheader.i.i ], [ %22, %.lr.ph.i._crit_edge.i.i.loopexit ]
  %23 = getelementptr inbounds nuw i8, ptr %.010.i, i64 8
  %24 = load ptr, ptr %23, align 8
  store ptr %24, ptr %.029.i.lcssa.i.i, align 8
  br label %.loopexit25.i.i.i

.loopexit25.i.i.i:                                ; preds = %.lr.ph.i.i, %.lr.ph.i._crit_edge.i.i, %14
  %25 = getelementptr inbounds nuw i8, ptr %.010.i, i64 8
  tail call void @llvm.memset.p0.i64(ptr noundef nonnull align 8 dereferenceable(26) %25, i8 0, i64 26, i1 false)
  br label %26

26:                                               ; preds = %28, %.loopexit25.i.i.i
  %.1.i.i.i = phi ptr [ %3, %.loopexit25.i.i.i ], [ %27, %28 ]
  %27 = load ptr, ptr %.1.i.i.i, align 8
  %.not24.i.i.i = icmp eq ptr %27, null
  br i1 %.not24.i.i.i, label %nxsem_freeholder.exit.i.i, label %28

28:                                               ; preds = %26
  %29 = icmp eq ptr %27, %.010.i
  br i1 %29, label %30, label %26, !llvm.loop !9

30:                                               ; preds = %28
  %31 = load ptr, ptr %.010.i, align 8
  store ptr %31, ptr %.1.i.i.i, align 8
  br label %nxsem_freeholder.exit.i.i

nxsem_freeholder.exit.i.i:                        ; preds = %26, %30
  %32 = load ptr, ptr @g_freeholders, align 8
  store ptr %32, ptr %.010.i, align 8
  store ptr %.010.i, ptr @g_freeholders, align 8
  br label %33

33:                                               ; preds = %nxsem_freeholder.exit.i.i, %10
  %34 = getelementptr inbounds nuw i8, ptr %9, i64 49
  %35 = load i8, ptr %34, align 1
  %36 = getelementptr inbounds nuw i8, ptr %9, i64 50
  %37 = load i8, ptr %36, align 2
  %..i.i.i = tail call i8 @llvm.umax.i8(i8 %35, i8 %37)
  %38 = getelementptr inbounds nuw i8, ptr %9, i64 28
  %39 = load i8, ptr %38, align 4
  %.not.i5.i.i = icmp eq i8 %39, %..i.i.i
  br i1 %.not.i5.i.i, label %nxsem_restoreholderprio_others.exit, label %40

40:                                               ; preds = %33
  %41 = zext i8 %..i.i.i to i32
  %42 = getelementptr inbounds nuw i8, ptr %9, i64 56
  %.01523.i.i.i = load ptr, ptr %42, align 8
  %.not2124.i.i.i = icmp eq ptr %.01523.i.i.i, null
  br i1 %.not2124.i.i.i, label %._crit_edge.i.i.i, label %.lr.ph.i6.i.i

.lr.ph.i6.i.i:                                    ; preds = %40, %51
  %.01526.i.i.i = phi ptr [ %.015.i.i.i, %51 ], [ %.01523.i.i.i, %40 ]
  %.025.i.i.i = phi i32 [ %.1.i7.i.i, %51 ], [ %41, %40 ]
  %43 = getelementptr inbounds nuw i8, ptr %.01526.i.i.i, i64 16
  %44 = load ptr, ptr %43, align 8
  %45 = getelementptr inbounds nuw i8, ptr %44, i64 8
  %46 = load ptr, ptr %45, align 8
  %.not22.i.i.i = icmp eq ptr %46, null
  br i1 %.not22.i.i.i, label %51, label %47

47:                                               ; preds = %.lr.ph.i6.i.i
  %48 = getelementptr inbounds nuw i8, ptr %46, i64 28
  %49 = load i8, ptr %48, align 4
  %50 = zext i8 %49 to i32
  %spec.select.i.i.i = tail call i32 @llvm.smax.i32(i32 %.025.i.i.i, i32 %50)
  br label %51

51:                                               ; preds = %47, %.lr.ph.i6.i.i
  %.1.i7.i.i = phi i32 [ %.025.i.i.i, %.lr.ph.i6.i.i ], [ %spec.select.i.i.i, %47 ]
  %52 = getelementptr inbounds nuw i8, ptr %.01526.i.i.i, i64 8
  %.015.i.i.i = load ptr, ptr %52, align 8
  %.not21.i.i.i = icmp eq ptr %.015.i.i.i, null
  br i1 %.not21.i.i.i, label %._crit_edge.i.i.i, label %.lr.ph.i6.i.i, !llvm.loop !13

._crit_edge.i.i.i:                                ; preds = %51, %40
  %.0.lcssa.i.i.i = phi i32 [ %41, %40 ], [ %.1.i7.i.i, %51 ]
  %53 = tail call i32 @nxsched_set_priority(ptr noundef %9, i32 noundef %.0.lcssa.i.i.i) #7
  br label %nxsem_restoreholderprio_others.exit

nxsem_restoreholderprio_others.exit:              ; preds = %.lr.ph.i, %33, %._crit_edge.i.i.i
  %.not49 = icmp eq ptr %6, null
  br i1 %.not49, label %nxsem_foreachholder.exit, label %.lr.ph.i, !llvm.loop !10

nxsem_foreachholder.exit:                         ; preds = %nxsem_restoreholderprio_others.exit
  %.pr = load ptr, ptr %3, align 8
  %.not.i6 = icmp eq ptr %.pr, null
  br i1 %.not.i6, label %nxsem_foreachholder.exit10, label %.lr.ph.i7.preheader

.lr.ph.i7.preheader:                              ; preds = %nxsem_foreachholder.exit
  %54 = load ptr, ptr @g_readytorun, align 8
  br label %.lr.ph.i7

.lr.ph.i7:                                        ; preds = %.lr.ph.i7.preheader, %nxsem_restoreholderprio_self.exit
  %.010.i8 = phi ptr [ %102, %nxsem_restoreholderprio_self.exit ], [ %.pr, %.lr.ph.i7.preheader ]
  %55 = getelementptr inbounds nuw i8, ptr %.010.i8, i64 24
  %56 = load ptr, ptr %55, align 8
  %57 = icmp eq ptr %56, %54
  br i1 %57, label %58, label %nxsem_restoreholderprio_self.exit

58:                                               ; preds = %.lr.ph.i7
  %59 = getelementptr inbounds nuw i8, ptr %.010.i8, i64 32
  %60 = load i16, ptr %59, align 8
  %61 = icmp slt i16 %60, 1
  br i1 %61, label %62, label %81

62:                                               ; preds = %58
  %63 = getelementptr inbounds nuw i8, ptr %56, i64 56
  %64 = load ptr, ptr %63, align 8
  %.not28.i.i.i31 = icmp eq ptr %64, null
  br i1 %.not28.i.i.i31, label %.loopexit25.i.i.i39, label %.lr.ph.i.preheader.i.i32

.lr.ph.i.preheader.i.i32:                         ; preds = %62
  %65 = icmp eq ptr %64, %.010.i8
  br i1 %65, label %.lr.ph.i._crit_edge.i.i37, label %.lr.ph.i.i33

.lr.ph.i.i33:                                     ; preds = %.lr.ph.i.preheader.i.i32, %.lr.ph.i.i.i35
  %66 = phi ptr [ %68, %.lr.ph.i.i.i35 ], [ %64, %.lr.ph.i.preheader.i.i32 ]
  %67 = getelementptr inbounds nuw i8, ptr %66, i64 8
  %68 = load ptr, ptr %67, align 8
  %.not.i.i.i34 = icmp eq ptr %68, null
  br i1 %.not.i.i.i34, label %.loopexit25.i.i.i39, label %.lr.ph.i.i.i35, !llvm.loop !8

.lr.ph.i.i.i35:                                   ; preds = %.lr.ph.i.i33
  %69 = icmp eq ptr %68, %.010.i8
  br i1 %69, label %.lr.ph.i._crit_edge.i.i37.loopexit, label %.lr.ph.i.i33, !llvm.loop !8

.lr.ph.i._crit_edge.i.i37.loopexit:               ; preds = %.lr.ph.i.i.i35
  %70 = getelementptr inbounds nuw i8, ptr %66, i64 8
  br label %.lr.ph.i._crit_edge.i.i37

.lr.ph.i._crit_edge.i.i37:                        ; preds = %.lr.ph.i._crit_edge.i.i37.loopexit, %.lr.ph.i.preheader.i.i32
  %.029.i.lcssa.i.i38 = phi ptr [ %63, %.lr.ph.i.preheader.i.i32 ], [ %70, %.lr.ph.i._crit_edge.i.i37.loopexit ]
  %71 = getelementptr inbounds nuw i8, ptr %.010.i8, i64 8
  %72 = load ptr, ptr %71, align 8
  store ptr %72, ptr %.029.i.lcssa.i.i38, align 8
  br label %.loopexit25.i.i.i39

.loopexit25.i.i.i39:                              ; preds = %.lr.ph.i.i33, %.lr.ph.i._crit_edge.i.i37, %62
  %73 = getelementptr inbounds nuw i8, ptr %.010.i8, i64 8
  tail call void @llvm.memset.p0.i64(ptr noundef nonnull align 8 dereferenceable(26) %73, i8 0, i64 26, i1 false)
  br label %74

74:                                               ; preds = %76, %.loopexit25.i.i.i39
  %.1.i.i.i40 = phi ptr [ %3, %.loopexit25.i.i.i39 ], [ %75, %76 ]
  %75 = load ptr, ptr %.1.i.i.i40, align 8
  %.not24.i.i.i41 = icmp eq ptr %75, null
  br i1 %.not24.i.i.i41, label %nxsem_freeholder.exit.i.i42, label %76

76:                                               ; preds = %74
  %77 = icmp eq ptr %75, %.010.i8
  br i1 %77, label %78, label %74, !llvm.loop !9

78:                                               ; preds = %76
  %79 = load ptr, ptr %.010.i8, align 8
  store ptr %79, ptr %.1.i.i.i40, align 8
  br label %nxsem_freeholder.exit.i.i42

nxsem_freeholder.exit.i.i42:                      ; preds = %74, %78
  %80 = load ptr, ptr @g_freeholders, align 8
  store ptr %80, ptr %.010.i8, align 8
  store ptr %.010.i8, ptr @g_freeholders, align 8
  br label %81

81:                                               ; preds = %nxsem_freeholder.exit.i.i42, %58
  %82 = getelementptr inbounds nuw i8, ptr %56, i64 49
  %83 = load i8, ptr %82, align 1
  %84 = getelementptr inbounds nuw i8, ptr %56, i64 50
  %85 = load i8, ptr %84, align 2
  %..i.i.i17 = tail call i8 @llvm.umax.i8(i8 %83, i8 %85)
  %86 = getelementptr inbounds nuw i8, ptr %56, i64 28
  %87 = load i8, ptr %86, align 4
  %.not.i5.i.i18 = icmp eq i8 %87, %..i.i.i17
  br i1 %.not.i5.i.i18, label %nxsem_foreachholder.exit10, label %88

88:                                               ; preds = %81
  %89 = zext i8 %..i.i.i17 to i32
  %90 = getelementptr inbounds nuw i8, ptr %56, i64 56
  %.01523.i.i.i19 = load ptr, ptr %90, align 8
  %.not2124.i.i.i20 = icmp eq ptr %.01523.i.i.i19, null
  br i1 %.not2124.i.i.i20, label %._crit_edge.i.i.i29, label %.lr.ph.i6.i.i21

.lr.ph.i6.i.i21:                                  ; preds = %88, %99
  %.01526.i.i.i22 = phi ptr [ %.015.i.i.i27, %99 ], [ %.01523.i.i.i19, %88 ]
  %.025.i.i.i23 = phi i32 [ %.1.i7.i.i26, %99 ], [ %89, %88 ]
  %91 = getelementptr inbounds nuw i8, ptr %.01526.i.i.i22, i64 16
  %92 = load ptr, ptr %91, align 8
  %93 = getelementptr inbounds nuw i8, ptr %92, i64 8
  %94 = load ptr, ptr %93, align 8
  %.not22.i.i.i24 = icmp eq ptr %94, null
  br i1 %.not22.i.i.i24, label %99, label %95

95:                                               ; preds = %.lr.ph.i6.i.i21
  %96 = getelementptr inbounds nuw i8, ptr %94, i64 28
  %97 = load i8, ptr %96, align 4
  %98 = zext i8 %97 to i32
  %spec.select.i.i.i25 = tail call i32 @llvm.smax.i32(i32 %.025.i.i.i23, i32 %98)
  br label %99

99:                                               ; preds = %95, %.lr.ph.i6.i.i21
  %.1.i7.i.i26 = phi i32 [ %.025.i.i.i23, %.lr.ph.i6.i.i21 ], [ %spec.select.i.i.i25, %95 ]
  %100 = getelementptr inbounds nuw i8, ptr %.01526.i.i.i22, i64 8
  %.015.i.i.i27 = load ptr, ptr %100, align 8
  %.not21.i.i.i28 = icmp eq ptr %.015.i.i.i27, null
  br i1 %.not21.i.i.i28, label %._crit_edge.i.i.i29, label %.lr.ph.i6.i.i21, !llvm.loop !13

._crit_edge.i.i.i29:                              ; preds = %99, %88
  %.0.lcssa.i.i.i30 = phi i32 [ %89, %88 ], [ %.1.i7.i.i26, %99 ]
  %101 = tail call i32 @nxsched_set_priority(ptr noundef %56, i32 noundef %.0.lcssa.i.i.i30) #7
  br label %nxsem_foreachholder.exit10

nxsem_restoreholderprio_self.exit:                ; preds = %.lr.ph.i7
  %102 = load ptr, ptr %.010.i8, align 8
  %.not50 = icmp eq ptr %102, null
  br i1 %.not50, label %nxsem_foreachholder.exit10, label %.lr.ph.i7, !llvm.loop !10

103:                                              ; preds = %2
  br i1 %.not.i11, label %nxsem_foreachholder.exit10, label %.lr.ph.i12

.lr.ph.i12:                                       ; preds = %103, %nxsem_freecount0holder.exit
  %.010.i13 = phi ptr [ %128, %nxsem_freecount0holder.exit ], [ %4, %103 ]
  %104 = getelementptr inbounds nuw i8, ptr %.010.i13, i64 32
  %105 = load i16, ptr %104, align 8
  %106 = icmp slt i16 %105, 1
  br i1 %106, label %107, label %nxsem_freecount0holder.exit

107:                                              ; preds = %.lr.ph.i12
  %108 = getelementptr inbounds nuw i8, ptr %.010.i13, i64 24
  %109 = load ptr, ptr %108, align 8
  %110 = getelementptr inbounds nuw i8, ptr %109, i64 56
  %111 = load ptr, ptr %110, align 8
  %.not28.i.i = icmp eq ptr %111, null
  br i1 %.not28.i.i, label %.loopexit25.i.i, label %.lr.ph.i.preheader.i

.lr.ph.i.preheader.i:                             ; preds = %107
  %112 = icmp eq ptr %111, %.010.i13
  br i1 %112, label %.lr.ph.i._crit_edge.i, label %.lr.ph.i44

.lr.ph.i44:                                       ; preds = %.lr.ph.i.preheader.i, %.lr.ph.i.i45
  %113 = phi ptr [ %115, %.lr.ph.i.i45 ], [ %111, %.lr.ph.i.preheader.i ]
  %114 = getelementptr inbounds nuw i8, ptr %113, i64 8
  %115 = load ptr, ptr %114, align 8
  %.not.i.i = icmp eq ptr %115, null
  br i1 %.not.i.i, label %.loopexit25.i.i, label %.lr.ph.i.i45, !llvm.loop !8

.lr.ph.i.i45:                                     ; preds = %.lr.ph.i44
  %116 = icmp eq ptr %115, %.010.i13
  br i1 %116, label %.lr.ph.i._crit_edge.i.loopexit, label %.lr.ph.i44, !llvm.loop !8

.lr.ph.i._crit_edge.i.loopexit:                   ; preds = %.lr.ph.i.i45
  %117 = getelementptr inbounds nuw i8, ptr %113, i64 8
  br label %.lr.ph.i._crit_edge.i

.lr.ph.i._crit_edge.i:                            ; preds = %.lr.ph.i._crit_edge.i.loopexit, %.lr.ph.i.preheader.i
  %.029.i.lcssa.i = phi ptr [ %110, %.lr.ph.i.preheader.i ], [ %117, %.lr.ph.i._crit_edge.i.loopexit ]
  %118 = getelementptr inbounds nuw i8, ptr %.010.i13, i64 8
  %119 = load ptr, ptr %118, align 8
  store ptr %119, ptr %.029.i.lcssa.i, align 8
  br label %.loopexit25.i.i

.loopexit25.i.i:                                  ; preds = %.lr.ph.i44, %.lr.ph.i._crit_edge.i, %107
  %120 = getelementptr inbounds nuw i8, ptr %.010.i13, i64 8
  tail call void @llvm.memset.p0.i64(ptr noundef nonnull align 8 dereferenceable(26) %120, i8 0, i64 26, i1 false)
  br label %121

121:                                              ; preds = %123, %.loopexit25.i.i
  %.1.i.i = phi ptr [ %3, %.loopexit25.i.i ], [ %122, %123 ]
  %122 = load ptr, ptr %.1.i.i, align 8
  %.not24.i.i = icmp eq ptr %122, null
  br i1 %.not24.i.i, label %nxsem_freecount0holder.exit.thread, label %123

123:                                              ; preds = %121
  %124 = icmp eq ptr %122, %.010.i13
  br i1 %124, label %125, label %121, !llvm.loop !9

125:                                              ; preds = %123
  %126 = load ptr, ptr %.010.i13, align 8
  store ptr %126, ptr %.1.i.i, align 8
  br label %nxsem_freecount0holder.exit.thread

nxsem_freecount0holder.exit.thread:               ; preds = %121, %125
  %127 = load ptr, ptr @g_freeholders, align 8
  store ptr %127, ptr %.010.i13, align 8
  store ptr %.010.i13, ptr @g_freeholders, align 8
  br label %nxsem_foreachholder.exit10

nxsem_freecount0holder.exit:                      ; preds = %.lr.ph.i12
  %128 = load ptr, ptr %.010.i13, align 8
  %.not51 = icmp eq ptr %128, null
  br i1 %.not51, label %nxsem_foreachholder.exit10, label %.lr.ph.i12, !llvm.loop !10

nxsem_foreachholder.exit10:                       ; preds = %nxsem_restoreholderprio_self.exit, %nxsem_freecount0holder.exit, %._crit_edge.i.i.i29, %81, %5, %103, %nxsem_freecount0holder.exit.thread, %nxsem_foreachholder.exit
  ret void
}